target datalayout = "e-m:e-p270:32:32-p271:32:32-p272:64:64-i64:64-i128:128-f80:128-n8:16:32:64-S128"
target triple = "x86_64-pc-linux-gnu"

%struct.AVComplexFloat = type { float, float }

; Function Attrs: alwaysinline nounwind willreturn memory(none) uwtable
define internal zeroext i8 @av_clip_uint8_c(i32 noundef %0) #9 {
  %2 = alloca i8, align 1
  %3 = alloca i32, align 4
  store i32 %0, ptr %3, align 4, !tbaa !24
  %4 = load i32, ptr %3, align 4, !tbaa !24
  %5 = and i32 %4, -256
  %6 = icmp ne i32 %5, 0
  br i1 %6, label %7, label %12

7:                                                ; preds = %1
  %8 = load i32, ptr %3, align 4, !tbaa !24
  %9 = xor i32 %8, -1
  %10 = ashr i32 %9, 31
  %11 = trunc i32 %10 to i8
  store i8 %11, ptr %2, align 1
  br label %15

12:                                               ; preds = %1
  %13 = load i32, ptr %3, align 4, !tbaa !24
  %14 = trunc i32 %13 to i8
  store i8 %14, ptr %2, align 1
  br label %15

15:                                               ; preds = %12, %7
  %16 = load i8, ptr %2, align 1
  ret i8 %16
}

; Function Attrs: nounwind uwtable
define internal void @export_row8(ptr noundef %0, ptr noundef %1, i32 noundef %2, i32 noundef %3, ptr noundef %4) #2 {
  %6 = alloca ptr, align 8
  %7 = alloca ptr, align 8
  %8 = alloca i32, align 4
  %9 = alloca i32, align 4
  %10 = alloca ptr, align 8
  %11 = alloca i32, align 4
  store ptr %0, ptr %6, align 8, !tbaa !85
  store ptr %1, ptr %7, align 8, !tbaa !59
  store i32 %2, ptr %8, align 4, !tbaa !24
  store i32 %3, ptr %9, align 4, !tbaa !24
  store ptr %4, ptr %10, align 8, !tbaa !87
  call void @llvm.lifetime.start.p0(i64 4, ptr %11) #11
  store i32 0, ptr %11, align 4, !tbaa !24
  br label %12

12:                                               ; preds = %37, %5
  %13 = load i32, ptr %11, align 4, !tbaa !24
  %14 = load i32, ptr %8, align 4, !tbaa !24
  %15 = icmp slt i32 %13, %14
  br i1 %15, label %17, label %16

16:                                               ; preds = %12
  call void @llvm.lifetime.end.p0(i64 4, ptr %11) #11
  br label %40

17:                                               ; preds = %12
  %18 = load ptr, ptr %6, align 8, !tbaa !85
  %19 = load i32, ptr %11, align 4, !tbaa !24
  %20 = sext i32 %19 to i64
  %21 = getelementptr inbounds %struct.AVComplexFloat, ptr %18, i64 %20
  %22 = getelementptr inbounds nuw %struct.AVComplexFloat, ptr %21, i32 0, i32 0
  %23 = load float, ptr %22, align 4, !tbaa !98
  %24 = load ptr, ptr %10, align 8, !tbaa !87
  %25 = load i32, ptr %11, align 4, !tbaa !24
  %26 = sext i32 %25 to i64
  %27 = getelementptr inbounds float, ptr %24, i64 %26
  %28 = load float, ptr %27, align 4, !tbaa !75
  %29 = fdiv nsz float %23, %28
  %30 = call i64 @llvm.lrint.i64.f32(float %29)
  %31 = trunc i64 %30 to i32
  %32 = call zeroext i8 @av_clip_uint8_c(i32 noundef %31) #13
  %33 = load ptr, ptr %7, align 8, !tbaa !59
  %34 = load i32, ptr %11, align 4, !tbaa !24
  %35 = sext i32 %34 to i64
  %36 = getelementptr inbounds i8, ptr %33, i64 %35
  store i8 %32, ptr %36, align 1, !tbaa !128
  br label %37

37:                                               ; preds = %17
  %38 = load i32, ptr %11, align 4, !tbaa !24
  %39 = add nsw i32 %38, 1
  store i32 %39, ptr %11, align 4, !tbaa !24
  br label %12, !llvm.loop !130

40:                                               ; preds = %16
  ret void
}