; Function Attrs: nofree norecurse nosync nounwind memory(argmem: readwrite) uwtable
define internal void @export_row8(ptr noundef readonly captures(none) %0, ptr noundef writeonly captures(none) %1, i32 noundef %2, i32 %3, ptr noundef readonly captures(none) %4) #5 {
  %6 = icmp sgt i32 %2, 0
  br i1 %6, label %.lr.ph.preheader, label %._crit_edge

.lr.ph.preheader:                                 ; preds = %5
  %wide.trip.count = zext nneg i32 %2 to i64
  br label %.lr.ph

._crit_edge:                                      ; preds = %.lr.ph, %5
  ret void

.lr.ph:                                           ; preds = %.lr.ph.preheader, %.lr.ph
  %indvars.iv = phi i64 [ 0, %.lr.ph.preheader ], [ %indvars.iv.next, %.lr.ph ]
  %7 = getelementptr inbounds nuw %struct.AVComplexFloat, ptr %0, i64 %indvars.iv
  %8 = load float, ptr %7, align 4, !tbaa !111
  %9 = getelementptr inbounds nuw float, ptr %4, i64 %indvars.iv
  %10 = load float, ptr %9, align 4, !tbaa !68
  %11 = fdiv nsz float %8, %10
  %12 = tail call i64 @llvm.lrint.i64.f32(float %11)
  %13 = trunc i64 %12 to i32
  %.not.i = icmp ult i32 %13, 256
  %isnotneg.i = icmp sgt i32 %13, -1
  %14 = sext i1 %isnotneg.i to i8
  %15 = trunc i64 %12 to i8
  %.0.i = select i1 %.not.i, i8 %15, i8 %14
  %16 = getelementptr inbounds nuw i8, ptr %1, i64 %indvars.iv
  store i8 %.0.i, ptr %16, align 1, !tbaa !140
  %indvars.iv.next = add nuw nsw i64 %indvars.iv, 1
  %exitcond.not = icmp eq i64 %indvars.iv.next, %wide.trip.count
  br i1 %exitcond.not, label %._crit_edge, label %.lr.ph, !llvm.loop !142
}